target datalayout = "e-m:e-p270:32:32-p271:32:32-p272:64:64-i64:64-i128:128-f80:128-n8:16:32:64-S128"
target triple = "x86_64-pc-linux-gnu"

%"class.std::__1::ctype" = type <{ %"class.std::__1::locale::facet", ptr, i8, [7 x i8] }>
%"class.std::__1::locale::facet" = type { %"class.std::__1::__shared_count" }
%"class.std::__1::__shared_count" = type { ptr, i64 }

; Function Attrs: mustprogress nounwind uwtable
define dso_local void @_ZNSt3__16locale5facetD2Ev(ptr noundef nonnull align 8 dereferenceable(16) %0) unnamed_addr #0 align 2 {
  %2 = alloca ptr, align 8
  store ptr %0, ptr %2, align 8, !tbaa !363
  %3 = load ptr, ptr %2, align 8
  call void @_ZNSt3__114__shared_countD2Ev(ptr noundef nonnull align 8 dereferenceable(16) %3) #13
  ret void
}

; Function Attrs: mustprogress nounwind uwtable
define dso_local void @_ZNSt3__15ctypeIcED2Ev(ptr noundef nonnull align 8 dereferenceable(25) %0) unnamed_addr #0 align 2 {
  %2 = alloca ptr, align 8
  store ptr %0, ptr %2, align 8, !tbaa !43
  %3 = load ptr, ptr %2, align 8
  store ptr getelementptr inbounds inrange(-16, 88) ({ [13 x ptr] }, ptr @_ZTVNSt3__15ctypeIcEE, i32 0, i32 0, i32 2), ptr %3, align 8, !tbaa !37
  %4 = getelementptr inbounds nuw %"class.std::__1::ctype", ptr %3, i32 0, i32 1
  %5 = load ptr, ptr %4, align 8, !tbaa !185
  %6 = icmp ne ptr %5, null
  br i1 %6, label %7, label %17

7:                                                ; preds = %1
  %8 = getelementptr inbounds nuw %"class.std::__1::ctype", ptr %3, i32 0, i32 2
  %9 = load i8, ptr %8, align 8, !tbaa !459, !range !57, !noundef !58
  %10 = trunc i8 %9 to i1
  br i1 %10, label %11, label %17

11:                                               ; preds = %7
  %12 = getelementptr inbounds nuw %"class.std::__1::ctype", ptr %3, i32 0, i32 1
  %13 = load ptr, ptr %12, align 8, !tbaa !185
  %14 = icmp eq ptr %13, null
  br i1 %14, label %16, label %15

15:                                               ; preds = %11
  call void @_ZdaPv(ptr noundef %13) #28
  br label %16

16:                                               ; preds = %15, %11
  br label %17

17:                                               ; preds = %16, %7, %1
  call void @_ZNSt3__16locale5facetD2Ev(ptr noundef nonnull align 8 dereferenceable(16) %3) #13
  ret void
}