; Function Attrs: mustprogress nounwind uwtable
define dso_local void @_ZNSt3__15ctypeIcED2Ev(ptr noundef nonnull align 8 dereferenceable(25) initializes((0, 8)) %0) unnamed_addr #0 align 2 {
  store ptr getelementptr inbounds nuw inrange(-16, 88) (i8, ptr @_ZTVNSt3__15ctypeIcEE, i64 16), ptr %0, align 8, !tbaa !23
  %2 = getelementptr inbounds nuw i8, ptr %0, i64 16
  %3 = load ptr, ptr %2, align 8, !tbaa !159
  %.not = icmp ne ptr %3, null
  %4 = getelementptr inbounds nuw i8, ptr %0, i64 24
  %5 = load i8, ptr %4, align 8, !range !74
  %6 = trunc nuw i8 %5 to i1
  %or.cond = select i1 %.not, i1 %6, i1 false
  br i1 %or.cond, label %7, label %8

7:                                                ; preds = %1
  tail call void @_ZdaPv(ptr noundef nonnull %3) #46
  br label %8

8:                                                ; preds = %7, %1
  tail call void @_ZNSt3__114__shared_countD2Ev(ptr noundef nonnull align 8 dereferenceable(16) %0) #45
  ret void
}